; Function Attrs: mustprogress nofree nounwind willreturn memory(argmem: read) uwtable
define i32 @ossl_v3_name_cmp(ptr noundef readonly captures(none) %0, ptr noundef readonly captures(none) %1) local_unnamed_addr #4 {
  %3 = tail call i64 @strlen(ptr noundef nonnull dereferenceable(1) %1) #11
  %sext = shl i64 %3, 32
  %4 = ashr exact i64 %sext, 32
  %5 = tail call i32 @strncmp(ptr noundef %0, ptr noundef nonnull %1, i64 noundef %4) #11
  %.not = icmp eq i32 %5, 0
  br i1 %.not, label %6, label %10

6:                                                ; preds = %2
  %7 = getelementptr inbounds i8, ptr %0, i64 %4
  %8 = load i8, ptr %7, align 1, !tbaa !13
  %switch.selectcmp.case1 = icmp ne i8 %8, 46
  %switch.selectcmp.case2 = icmp ne i8 %8, 0
  %switch.selectcmp.not = and i1 %switch.selectcmp.case1, %switch.selectcmp.case2
  %9 = zext i1 %switch.selectcmp.not to i32
  br label %10

10:                                               ; preds = %6, %2
  %.0 = phi i32 [ %5, %2 ], [ %9, %6 ]
  ret i32 %.0
}